; Function Attrs: mustprogress uwtable
define internal fastcc void @"_ZN6google8protobuf8compiler3cpp12ForEachFieldIZNS2_13FileGenerator24GenerateSourceForMessageEiPNS0_2io7PrinterEE3$_0EEvPKNS0_10DescriptorEOT_"(ptr nocapture noundef readonly %d, ptr nocapture noundef nonnull readonly align 8 dereferenceable(16) %func) unnamed_addr #3 {
entry:
  %nested_type_count_.i = getelementptr inbounds i8, ptr %d, i64 128
  %0 = load i32, ptr %nested_type_count_.i, align 8
  %cmp21 = icmp sgt i32 %0, 0
  br i1 %cmp21, label %for.body.lr.ph, label %for.cond3.preheader

for.body.lr.ph:                                   ; preds = %entry
  %nested_types_.i = getelementptr inbounds i8, ptr %d, i64 72
  br label %for.body

for.cond3.preheader:                              ; preds = %for.body, %entry
  %extension_count_.i = getelementptr inbounds i8, ptr %d, i64 140
  %1 = load i32, ptr %extension_count_.i, align 4
  %cmp523 = icmp sgt i32 %1, 0
  br i1 %cmp523, label %for.body6.lr.ph, label %for.cond12.preheader

for.body6.lr.ph:                                  ; preds = %for.cond3.preheader
  %extensions_.i = getelementptr inbounds i8, ptr %d, i64 96
  %2 = getelementptr inbounds i8, ptr %func, i64 8
  br label %for.body6

for.body:                                         ; preds = %for.body.lr.ph, %for.body
  %indvars.iv = phi i64 [ 0, %for.body.lr.ph ], [ %indvars.iv.next, %for.body ]
  %3 = load ptr, ptr %nested_types_.i, align 8
  %add.ptr.i = getelementptr inbounds %"class.google::protobuf::Descriptor", ptr %3, i64 %indvars.iv
  tail call fastcc void @"_ZN6google8protobuf8compiler3cpp12ForEachFieldIZNS2_13FileGenerator24GenerateSourceForMessageEiPNS0_2io7PrinterEE3$_0EEvPKNS0_10DescriptorEOT_"(ptr noundef %add.ptr.i, ptr noundef nonnull align 8 dereferenceable(16) %func)
  %indvars.iv.next = add nuw nsw i64 %indvars.iv, 1
  %4 = load i32, ptr %nested_type_count_.i, align 8
  %5 = sext i32 %4 to i64
  %cmp = icmp slt i64 %indvars.iv.next, %5
  br i1 %cmp, label %for.body, label %for.cond3.preheader, !llvm.loop !169

for.cond12.preheader:                             ; preds = %for.body6, %for.cond3.preheader
  %field_count_.i = getelementptr inbounds i8, ptr %d, i64 4
  %6 = load i32, ptr %field_count_.i, align 4
  %cmp1425 = icmp sgt i32 %6, 0
  br i1 %cmp1425, label %for.body15.lr.ph, label %for.end19

for.body15.lr.ph:                                 ; preds = %for.cond12.preheader
  %fields_.i = getelementptr inbounds i8, ptr %d, i64 56
  %7 = getelementptr inbounds i8, ptr %func, i64 8
  br label %for.body15

for.body6:                                        ; preds = %for.body6.lr.ph, %for.body6
  %indvars.iv28 = phi i64 [ 0, %for.body6.lr.ph ], [ %indvars.iv.next29, %for.body6 ]
  %8 = load ptr, ptr %extensions_.i, align 8
  %add.ptr.i18 = getelementptr inbounds %"class.google::protobuf::FieldDescriptor", ptr %8, i64 %indvars.iv28
  %func.val = load ptr, ptr %func, align 8
  %func.val14 = load ptr, ptr %2, align 8
  tail call void @_ZN6google8protobuf8compiler3cpp13FileGenerator30GetCrossFileReferencesForFieldEPKNS0_15FieldDescriptorEPNS3_19CrossFileReferencesE(ptr noundef nonnull align 8 dereferenceable(752) %func.val, ptr noundef %add.ptr.i18, ptr noundef %func.val14)
  %indvars.iv.next29 = add nuw nsw i64 %indvars.iv28, 1
  %9 = load i32, ptr %extension_count_.i, align 4
  %10 = sext i32 %9 to i64
  %cmp5 = icmp slt i64 %indvars.iv.next29, %10
  br i1 %cmp5, label %for.body6, label %for.cond12.preheader, !llvm.loop !170

for.body15:                                       ; preds = %for.body15.lr.ph, %for.body15
  %indvars.iv31 = phi i64 [ 0, %for.body15.lr.ph ], [ %indvars.iv.next32, %for.body15 ]
  %11 = load ptr, ptr %fields_.i, align 8
  %add.ptr.i20 = getelementptr inbounds %"class.google::protobuf::FieldDescriptor", ptr %11, i64 %indvars.iv31
  %func.val15 = load ptr, ptr %func, align 8
  %func.val16 = load ptr, ptr %7, align 8
  tail call void @_ZN6google8protobuf8compiler3cpp13FileGenerator30GetCrossFileReferencesForFieldEPKNS0_15FieldDescriptorEPNS3_19CrossFileReferencesE(ptr noundef nonnull align 8 dereferenceable(752) %func.val15, ptr noundef %add.ptr.i20, ptr noundef %func.val16)
  %indvars.iv.next32 = add nuw nsw i64 %indvars.iv31, 1
  %12 = load i32, ptr %field_count_.i, align 4
  %13 = sext i32 %12 to i64
  %cmp14 = icmp slt i64 %indvars.iv.next32, %13
  br i1 %cmp14, label %for.body15, label %for.end19, !llvm.loop !171

for.end19:                                        ; preds = %for.body15, %for.cond12.preheader
  ret void
}